; Function Attrs: nounwind uwtable
define internal noalias noundef ptr @_msg_thr_internal(ptr noundef readonly captures(none) %0) #0 {
  %2 = tail call i32 @get_log_level() #13
  %3 = icmp sgt i32 %2, 4
  br i1 %3, label %4, label %7

4:                                                ; preds = %1
  %5 = tail call i32 @getpid() #13
  %6 = sext i32 %5 to i64
  tail call void (i32, ptr, ...) @log_var(i32 noundef 5, ptr noundef nonnull @.str.15, i64 noundef %6) #13
  br label %7

7:                                                ; preds = %4, %1
  %8 = getelementptr inbounds nuw i8, ptr %0, i64 664
  %9 = load ptr, ptr %8, align 8
  %10 = tail call i32 @eio_handle_mainloop(ptr noundef %9) #13
  %11 = tail call i32 @get_log_level() #13
  %12 = icmp sgt i32 %11, 4
  br i1 %12, label %13, label %14

13:                                               ; preds = %7
  tail call void (i32, ptr, ...) @log_var(i32 noundef 5, ptr noundef nonnull @.str.16) #13
  br label %14

14:                                               ; preds = %13, %7
  ret ptr null
}